; Function Attrs: mustprogress nounwind uwtable
define dso_local void @_ZN5clang13ASTDeclWriter21VisitTopLevelStmtDeclEPNS_16TopLevelStmtDeclE(ptr noundef nonnull align 8 dereferenceable(241) %0, ptr noundef nonnull %1) local_unnamed_addr #0 align 2 {
  tail call void @_ZN5clang13ASTDeclWriter9VisitDeclEPNS_4DeclE(ptr noundef nonnull align 8 dereferenceable(241) %0, ptr noundef %1)
  %3 = getelementptr inbounds nuw i8, ptr %1, i64 72
  %4 = load ptr, ptr %3, align 8
  %5 = getelementptr inbounds nuw i8, ptr %0, i64 40
  %6 = tail call noundef i64 @_ZNK4llvm15SmallVectorBaseIjE4sizeEv(ptr noundef nonnull align 8 dereferenceable(16) %5) #19
  %7 = add i64 %6, 1
  %8 = tail call noundef i64 @_ZNK4llvm15SmallVectorBaseIjE8capacityEv(ptr noundef nonnull align 8 dereferenceable(16) %5) #19
  %.not.i.i.i.i = icmp ugt i64 %7, %8
  br i1 %.not.i.i.i.i, label %9, label %_ZN5clang15ASTRecordWriter7AddStmtEPNS_4StmtE.exit

9:                                                ; preds = %2
  %10 = getelementptr inbounds nuw i8, ptr %0, i64 56
  tail call void @_ZN4llvm15SmallVectorBaseIjE8grow_podEPvmm(ptr noundef nonnull align 8 dereferenceable(16) %5, ptr noundef nonnull %10, i64 noundef %7, i64 noundef 8) #19
  br label %_ZN5clang15ASTRecordWriter7AddStmtEPNS_4StmtE.exit

_ZN5clang15ASTRecordWriter7AddStmtEPNS_4StmtE.exit: ; preds = %2, %9
  %11 = load ptr, ptr %5, align 8
  %12 = tail call noundef i64 @_ZNK4llvm15SmallVectorBaseIjE4sizeEv(ptr noundef nonnull align 8 dereferenceable(16) %5) #19
  %13 = getelementptr inbounds ptr, ptr %11, i64 %12
  %14 = ptrtoint ptr %4 to i64
  store i64 %14, ptr %13, align 1
  %15 = tail call noundef i64 @_ZNK4llvm15SmallVectorBaseIjE4sizeEv(ptr noundef nonnull align 8 dereferenceable(16) %5) #19
  %16 = add i64 %15, 1
  tail call void @_ZN4llvm15SmallVectorBaseIjE8set_sizeEm(ptr noundef nonnull align 8 dereferenceable(16) %5, i64 noundef %16) #19
  %17 = getelementptr inbounds nuw i8, ptr %0, i64 232
  store i32 78, ptr %17, align 8
  ret void
}